; Function Attrs: null_pointer_is_valid sspstrong uwtable
define internal fastcc range(i32 23, 42) i32 @dissect_etc_pd_cct_preset_config(ptr noundef %0, ptr noundef %1, i8 noundef zeroext %2) unnamed_addr #1 {
  switch i8 %2, label %26 [
    i8 32, label %4
    i8 33, label %7
    i8 48, label %7
  ]

4:                                                ; preds = %3
  %5 = load i32, ptr @hf_etc_pd_cct_preset_config_preset_number, align 4
  %6 = tail call ptr @proto_tree_add_item(ptr noundef %1, i32 noundef %5, ptr noundef %0, i32 noundef 23, i32 noundef 2, i32 noundef 0)
  br label %26

7:                                                ; preds = %3, %3
  %8 = load i32, ptr @hf_etc_pd_cct_preset_config_preset_number, align 4
  %9 = tail call ptr @proto_tree_add_item(ptr noundef %1, i32 noundef %8, ptr noundef %0, i32 noundef 23, i32 noundef 2, i32 noundef 0)
  %10 = load i32, ptr @hf_etc_pd_cct_preset_config_fade_time, align 4
  %11 = tail call ptr @proto_tree_add_item(ptr noundef %1, i32 noundef %10, ptr noundef %0, i32 noundef 25, i32 noundef 2, i32 noundef 0)
  %12 = load i32, ptr @hf_etc_pd_cct_preset_config_delay_time, align 4
  %13 = tail call ptr @proto_tree_add_item(ptr noundef %1, i32 noundef %12, ptr noundef %0, i32 noundef 27, i32 noundef 2, i32 noundef 0)
  %14 = load i32, ptr @hf_etc_pd_cct_preset_config_white_point, align 4
  %15 = tail call ptr @proto_tree_add_item(ptr noundef %1, i32 noundef %14, ptr noundef %0, i32 noundef 29, i32 noundef 2, i32 noundef 0)
  %16 = load i32, ptr @hf_etc_pd_cct_preset_config_tint, align 4
  %17 = tail call ptr @proto_tree_add_item(ptr noundef %1, i32 noundef %16, ptr noundef %0, i32 noundef 31, i32 noundef 2, i32 noundef 0)
  %18 = load i32, ptr @hf_etc_pd_cct_preset_config_strobe, align 4
  %19 = tail call ptr @proto_tree_add_item(ptr noundef %1, i32 noundef %18, ptr noundef %0, i32 noundef 33, i32 noundef 1, i32 noundef 0)
  %20 = load i32, ptr @hf_etc_pd_cct_preset_config_intensity, align 4
  %21 = tail call ptr @proto_tree_add_item(ptr noundef %1, i32 noundef %20, ptr noundef %0, i32 noundef 34, i32 noundef 2, i32 noundef 0)
  %22 = load i32, ptr @hf_etc_pd_cct_preset_config_tone, align 4
  %23 = tail call ptr @proto_tree_add_item(ptr noundef %1, i32 noundef %22, ptr noundef %0, i32 noundef 36, i32 noundef 1, i32 noundef 0)
  %24 = load i32, ptr @hf_etc_pd_cct_preset_config_reserved, align 4
  %25 = tail call ptr @proto_tree_add_item(ptr noundef %1, i32 noundef %24, ptr noundef %0, i32 noundef 37, i32 noundef 4, i32 noundef 0)
  br label %26

26:                                               ; preds = %7, %4, %3
  %.0 = phi i32 [ 23, %3 ], [ 41, %7 ], [ 25, %4 ]
  ret i32 %.0
}